; Function Attrs: nounwind uwtable
define internal noundef i32 @cff_get_kerning(ptr noundef %0, i32 noundef %1, i32 noundef %2, ptr nocapture noundef writeonly %3) #4 {
  %5 = getelementptr inbounds i8, ptr %0, i64 880
  %6 = load ptr, ptr %5, align 8
  %.not = icmp eq ptr %6, null
  tail call void @llvm.memset.p0.i64(ptr noundef nonnull align 8 dereferenceable(16) %3, i8 0, i64 16, i1 false)
  br i1 %.not, label %12, label %7

7:                                                ; preds = %4
  %8 = getelementptr inbounds i8, ptr %6, i64 176
  %9 = load ptr, ptr %8, align 8
  %10 = tail call i32 %9(ptr noundef nonnull %0, i32 noundef %1, i32 noundef %2) #20
  %11 = sext i32 %10 to i64
  store i64 %11, ptr %3, align 8
  br label %12

12:                                               ; preds = %7, %4
  ret i32 0
}